; Function Attrs: mustprogress nofree norecurse nosync nounwind willreturn memory(read, argmem: write, inaccessiblemem: none) uwtable
define hidden void @_ZN12divD_regNode16use_cisc_RegMaskEv(ptr nocapture noundef nonnull writeonly align 8 dereferenceable(96) %0) unnamed_addr #12 align 2 {
  %2 = load i64, ptr @_ZN19Abstract_VM_Version9_featuresE, align 8
  %3 = and i64 %2, 134217728
  %.not.i = icmp eq i64 %3, 0
  %spec.select.i = select i1 %.not.i, ptr @_STACK_OR_DOUBLE_REG_LEGACY_mask, ptr @_STACK_OR_DOUBLE_REG_EVEX_mask
  %4 = getelementptr inbounds i8, ptr %0, i64 88
  store ptr %spec.select.i, ptr %4, align 8
  ret void
}